target datalayout = "e-m:e-p270:32:32-p271:32:32-p272:64:64-i64:64-i128:128-f80:128-n8:16:32:64-S128"
target triple = "x86_64-pc-linux-gnu"

%struct.__storeu_ps = type { <4 x float> }
%struct.__loadu_si128 = type { <2 x i64> }

; Function Attrs: alwaysinline nounwind uwtable
define internal void @_mm_storeu_ps(ptr noundef %0, <4 x float> noundef %1) #13 {
  %3 = alloca ptr, align 8
  %4 = alloca <4 x float>, align 16
  store ptr %0, ptr %3, align 8
  store <4 x float> %1, ptr %4, align 16
  %5 = load <4 x float>, ptr %4, align 16
  %6 = load ptr, ptr %3, align 8
  %7 = getelementptr inbounds nuw %struct.__storeu_ps, ptr %6, i32 0, i32 0
  store <4 x float> %5, ptr %7, align 1
  ret void
}

; Function Attrs: alwaysinline nounwind uwtable
define internal <4 x float> @_mm_castsi128_ps(<2 x i64> noundef %0) #13 {
  %2 = alloca <2 x i64>, align 16
  store <2 x i64> %0, ptr %2, align 16
  %3 = load <2 x i64>, ptr %2, align 16
  %4 = bitcast <2 x i64> %3 to <4 x float>
  ret <4 x float> %4
}

; Function Attrs: alwaysinline nounwind uwtable
define internal <2 x i64> @_mm_castps_si128(<4 x float> noundef %0) #13 {
  %2 = alloca <4 x float>, align 16
  store <4 x float> %0, ptr %2, align 16
  %3 = load <4 x float>, ptr %2, align 16
  %4 = bitcast <4 x float> %3 to <2 x i64>
  ret <2 x i64> %4
}

; Function Attrs: alwaysinline nounwind uwtable
define internal <4 x float> @_mm_mul_ps(<4 x float> noundef %0, <4 x float> noundef %1) #13 {
  %3 = alloca <4 x float>, align 16
  %4 = alloca <4 x float>, align 16
  store <4 x float> %0, ptr %3, align 16
  store <4 x float> %1, ptr %4, align 16
  %5 = load <4 x float>, ptr %3, align 16
  %6 = load <4 x float>, ptr %4, align 16
  %7 = fmul <4 x float> %5, %6
  ret <4 x float> %7
}

; Function Attrs: alwaysinline nounwind uwtable
define internal <4 x float> @_mm_cvtepi32_ps(<2 x i64> noundef %0) #13 {
  %2 = alloca <2 x i64>, align 16
  store <2 x i64> %0, ptr %2, align 16
  %3 = load <2 x i64>, ptr %2, align 16
  %4 = bitcast <2 x i64> %3 to <4 x i32>
  %5 = sitofp <4 x i32> %4 to <4 x float>
  ret <4 x float> %5
}

; Function Attrs: alwaysinline nounwind uwtable
define internal <2 x i64> @_mm_unpackhi_epi16(<2 x i64> noundef %0, <2 x i64> noundef %1) #13 {
  %3 = alloca <2 x i64>, align 16
  %4 = alloca <2 x i64>, align 16
  store <2 x i64> %0, ptr %3, align 16
  store <2 x i64> %1, ptr %4, align 16
  %5 = load <2 x i64>, ptr %3, align 16
  %6 = bitcast <2 x i64> %5 to <8 x i16>
  %7 = load <2 x i64>, ptr %4, align 16
  %8 = bitcast <2 x i64> %7 to <8 x i16>
  %9 = shufflevector <8 x i16> %6, <8 x i16> %8, <8 x i32> <i32 4, i32 12, i32 5, i32 13, i32 6, i32 14, i32 7, i32 15>
  %10 = bitcast <8 x i16> %9 to <2 x i64>
  ret <2 x i64> %10
}

; Function Attrs: alwaysinline nounwind uwtable
define internal <2 x i64> @_mm_unpacklo_epi16(<2 x i64> noundef %0, <2 x i64> noundef %1) #13 {
  %3 = alloca <2 x i64>, align 16
  %4 = alloca <2 x i64>, align 16
  store <2 x i64> %0, ptr %3, align 16
  store <2 x i64> %1, ptr %4, align 16
  %5 = load <2 x i64>, ptr %3, align 16
  %6 = bitcast <2 x i64> %5 to <8 x i16>
  %7 = load <2 x i64>, ptr %4, align 16
  %8 = bitcast <2 x i64> %7 to <8 x i16>
  %9 = shufflevector <8 x i16> %6, <8 x i16> %8, <8 x i32> <i32 0, i32 8, i32 1, i32 9, i32 2, i32 10, i32 3, i32 11>
  %10 = bitcast <8 x i16> %9 to <2 x i64>
  ret <2 x i64> %10
}

; Function Attrs: alwaysinline nounwind uwtable
define internal <2 x i64> @_mm_unpackhi_epi8(<2 x i64> noundef %0, <2 x i64> noundef %1) #13 {
  %3 = alloca <2 x i64>, align 16
  %4 = alloca <2 x i64>, align 16
  store <2 x i64> %0, ptr %3, align 16
  store <2 x i64> %1, ptr %4, align 16
  %5 = load <2 x i64>, ptr %3, align 16
  %6 = bitcast <2 x i64> %5 to <16 x i8>
  %7 = load <2 x i64>, ptr %4, align 16
  %8 = bitcast <2 x i64> %7 to <16 x i8>
  %9 = shufflevector <16 x i8> %6, <16 x i8> %8, <16 x i32> <i32 8, i32 24, i32 9, i32 25, i32 10, i32 26, i32 11, i32 27, i32 12, i32 28, i32 13, i32 29, i32 14, i32 30, i32 15, i32 31>
  %10 = bitcast <16 x i8> %9 to <2 x i64>
  ret <2 x i64> %10
}

; Function Attrs: alwaysinline nounwind uwtable
define internal <2 x i64> @_mm_unpacklo_epi8(<2 x i64> noundef %0, <2 x i64> noundef %1) #13 {
  %3 = alloca <2 x i64>, align 16
  %4 = alloca <2 x i64>, align 16
  store <2 x i64> %0, ptr %3, align 16
  store <2 x i64> %1, ptr %4, align 16
  %5 = load <2 x i64>, ptr %3, align 16
  %6 = bitcast <2 x i64> %5 to <16 x i8>
  %7 = load <2 x i64>, ptr %4, align 16
  %8 = bitcast <2 x i64> %7 to <16 x i8>
  %9 = shufflevector <16 x i8> %6, <16 x i8> %8, <16 x i32> <i32 0, i32 16, i32 1, i32 17, i32 2, i32 18, i32 3, i32 19, i32 4, i32 20, i32 5, i32 21, i32 6, i32 22, i32 7, i32 23>
  %10 = bitcast <16 x i8> %9 to <2 x i64>
  ret <2 x i64> %10
}

; Function Attrs: alwaysinline nounwind uwtable
define internal <2 x i64> @_mm_setzero_si128() #13 {
  %1 = alloca <2 x i64>, align 16
  store <2 x i64> zeroinitializer, ptr %1, align 16
  %2 = load <2 x i64>, ptr %1, align 16
  ret <2 x i64> %2
}

; Function Attrs: alwaysinline nounwind uwtable
define internal <2 x i64> @_mm_loadu_si128(ptr noundef %0) #13 {
  %2 = alloca ptr, align 8
  store ptr %0, ptr %2, align 8
  %3 = load ptr, ptr %2, align 8
  %4 = getelementptr inbounds nuw %struct.__loadu_si128, ptr %3, i32 0, i32 0
  %5 = load <2 x i64>, ptr %4, align 1
  ret <2 x i64> %5
}

; Function Attrs: nounwind uwtable
define internal void @stbir__decode_uint8_linear_scaled_AR(ptr noundef %0, i32 noundef %1, ptr noundef %2) #12 {
  %4 = alloca ptr, align 8
  %5 = alloca i32, align 4
  %6 = alloca ptr, align 8
  %7 = alloca ptr, align 8
  %8 = alloca ptr, align 8
  %9 = alloca ptr, align 8
  %10 = alloca ptr, align 8
  %11 = alloca <2 x i64>, align 16
  %12 = alloca <2 x i64>, align 16
  %13 = alloca <2 x i64>, align 16
  %14 = alloca <2 x i64>, align 16
  %15 = alloca <2 x i64>, align 16
  %16 = alloca <4 x float>, align 16
  %17 = alloca <4 x float>, align 16
  %18 = alloca <4 x float>, align 16
  %19 = alloca <4 x float>, align 16
  %20 = alloca <2 x i64>, align 16
  %21 = alloca i32, align 4
  store ptr %0, ptr %4, align 8
  store i32 %1, ptr %5, align 4
  store ptr %2, ptr %6, align 8
  call void @llvm.lifetime.start.p0(i64 8, ptr %7) #19
  %22 = load ptr, ptr %4, align 8
  store ptr %22, ptr %7, align 8
  call void @llvm.lifetime.start.p0(i64 8, ptr %8) #19
  %23 = load ptr, ptr %7, align 8
  %24 = load i32, ptr %5, align 4
  %25 = sext i32 %24 to i64
  %26 = getelementptr inbounds float, ptr %23, i64 %25
  store ptr %26, ptr %8, align 8
  call void @llvm.lifetime.start.p0(i64 8, ptr %9) #19
  %27 = load ptr, ptr %6, align 8
  store ptr %27, ptr %9, align 8
  call void @llvm.lifetime.start.p0(i64 8, ptr %10) #19
  %28 = load ptr, ptr %9, align 8
  %29 = load i32, ptr %5, align 4
  %30 = sext i32 %29 to i64
  %31 = getelementptr inbounds i8, ptr %28, i64 %30
  %32 = getelementptr inbounds i8, ptr %31, i64 -16
  store ptr %32, ptr %10, align 8
  %33 = load i32, ptr %5, align 4
  %34 = icmp sge i32 %33, 16
  br i1 %34, label %35, label %134

35:                                               ; preds = %3
  %36 = load ptr, ptr %8, align 8
  %37 = getelementptr inbounds float, ptr %36, i64 -16
  store ptr %37, ptr %8, align 8
  br label %38

38:                                               ; preds = %132, %130, %35
  call void @llvm.lifetime.start.p0(i64 16, ptr %11) #19
  call void @llvm.lifetime.start.p0(i64 16, ptr %12) #19
  call void @llvm.lifetime.start.p0(i64 16, ptr %13) #19
  call void @llvm.lifetime.start.p0(i64 16, ptr %14) #19
  call void @llvm.lifetime.start.p0(i64 16, ptr %15) #19
  call void @llvm.lifetime.start.p0(i64 16, ptr %16) #19
  call void @llvm.lifetime.start.p0(i64 16, ptr %17) #19
  call void @llvm.lifetime.start.p0(i64 16, ptr %18) #19
  call void @llvm.lifetime.start.p0(i64 16, ptr %19) #19
  %39 = load ptr, ptr %7, align 8
  call void asm sideeffect "", "r,~{dirflag},~{fpsr},~{flags}"(ptr %39) #19, !srcloc !125
  %40 = load ptr, ptr %9, align 8
  %41 = call <2 x i64> @_mm_loadu_si128(ptr noundef %40)
  store <2 x i64> %41, ptr %11, align 16
  call void @llvm.lifetime.start.p0(i64 16, ptr %20) #19
  %42 = call <2 x i64> @_mm_setzero_si128()
  store <2 x i64> %42, ptr %20, align 16
  %43 = load <2 x i64>, ptr %11, align 16
  %44 = load <2 x i64>, ptr %20, align 16
  %45 = call <2 x i64> @_mm_unpacklo_epi8(<2 x i64> noundef %43, <2 x i64> noundef %44)
  store <2 x i64> %45, ptr %14, align 16
  %46 = load <2 x i64>, ptr %11, align 16
  %47 = load <2 x i64>, ptr %20, align 16
  %48 = call <2 x i64> @_mm_unpackhi_epi8(<2 x i64> noundef %46, <2 x i64> noundef %47)
  store <2 x i64> %48, ptr %15, align 16
  %49 = load <2 x i64>, ptr %14, align 16
  %50 = load <2 x i64>, ptr %20, align 16
  %51 = call <2 x i64> @_mm_unpacklo_epi16(<2 x i64> noundef %49, <2 x i64> noundef %50)
  store <2 x i64> %51, ptr %12, align 16
  %52 = load <2 x i64>, ptr %14, align 16
  %53 = load <2 x i64>, ptr %20, align 16
  %54 = call <2 x i64> @_mm_unpackhi_epi16(<2 x i64> noundef %52, <2 x i64> noundef %53)
  store <2 x i64> %54, ptr %13, align 16
  %55 = load <2 x i64>, ptr %15, align 16
  %56 = load <2 x i64>, ptr %20, align 16
  %57 = call <2 x i64> @_mm_unpacklo_epi16(<2 x i64> noundef %55, <2 x i64> noundef %56)
  store <2 x i64> %57, ptr %14, align 16
  %58 = load <2 x i64>, ptr %15, align 16
  %59 = load <2 x i64>, ptr %20, align 16
  %60 = call <2 x i64> @_mm_unpackhi_epi16(<2 x i64> noundef %58, <2 x i64> noundef %59)
  store <2 x i64> %60, ptr %15, align 16
  call void @llvm.lifetime.end.p0(i64 16, ptr %20) #19
  %61 = load <2 x i64>, ptr %12, align 16
  %62 = call <4 x float> @_mm_cvtepi32_ps(<2 x i64> noundef %61)
  store <4 x float> %62, ptr %16, align 16
  %63 = load <2 x i64>, ptr %13, align 16
  %64 = call <4 x float> @_mm_cvtepi32_ps(<2 x i64> noundef %63)
  store <4 x float> %64, ptr %17, align 16
  %65 = load <2 x i64>, ptr %14, align 16
  %66 = call <4 x float> @_mm_cvtepi32_ps(<2 x i64> noundef %65)
  store <4 x float> %66, ptr %18, align 16
  %67 = load <2 x i64>, ptr %15, align 16
  %68 = call <4 x float> @_mm_cvtepi32_ps(<2 x i64> noundef %67)
  store <4 x float> %68, ptr %19, align 16
  %69 = load <4 x float>, ptr %16, align 16
  %70 = call <4 x float> @_mm_mul_ps(<4 x float> noundef %69, <4 x float> noundef splat (float 0x3F70101020000000))
  store <4 x float> %70, ptr %16, align 16
  %71 = load <4 x float>, ptr %17, align 16
  %72 = call <4 x float> @_mm_mul_ps(<4 x float> noundef %71, <4 x float> noundef splat (float 0x3F70101020000000))
  store <4 x float> %72, ptr %17, align 16
  %73 = load <4 x float>, ptr %18, align 16
  %74 = call <4 x float> @_mm_mul_ps(<4 x float> noundef %73, <4 x float> noundef splat (float 0x3F70101020000000))
  store <4 x float> %74, ptr %18, align 16
  %75 = load <4 x float>, ptr %19, align 16
  %76 = call <4 x float> @_mm_mul_ps(<4 x float> noundef %75, <4 x float> noundef splat (float 0x3F70101020000000))
  store <4 x float> %76, ptr %19, align 16
  %77 = load <4 x float>, ptr %16, align 16
  %78 = call <2 x i64> @_mm_castps_si128(<4 x float> noundef %77)
  %79 = bitcast <2 x i64> %78 to <4 x i32>
  %80 = shufflevector <4 x i32> %79, <4 x i32> poison, <4 x i32> <i32 1, i32 0, i32 3, i32 2>
  %81 = bitcast <4 x i32> %80 to <2 x i64>
  %82 = call <4 x float> @_mm_castsi128_ps(<2 x i64> noundef %81)
  store <4 x float> %82, ptr %16, align 16
  %83 = load <4 x float>, ptr %17, align 16
  %84 = call <2 x i64> @_mm_castps_si128(<4 x float> noundef %83)
  %85 = bitcast <2 x i64> %84 to <4 x i32>
  %86 = shufflevector <4 x i32> %85, <4 x i32> poison, <4 x i32> <i32 1, i32 0, i32 3, i32 2>
  %87 = bitcast <4 x i32> %86 to <2 x i64>
  %88 = call <4 x float> @_mm_castsi128_ps(<2 x i64> noundef %87)
  store <4 x float> %88, ptr %17, align 16
  %89 = load <4 x float>, ptr %18, align 16
  %90 = call <2 x i64> @_mm_castps_si128(<4 x float> noundef %89)
  %91 = bitcast <2 x i64> %90 to <4 x i32>
  %92 = shufflevector <4 x i32> %91, <4 x i32> poison, <4 x i32> <i32 1, i32 0, i32 3, i32 2>
  %93 = bitcast <4 x i32> %92 to <2 x i64>
  %94 = call <4 x float> @_mm_castsi128_ps(<2 x i64> noundef %93)
  store <4 x float> %94, ptr %18, align 16
  %95 = load <4 x float>, ptr %19, align 16
  %96 = call <2 x i64> @_mm_castps_si128(<4 x float> noundef %95)
  %97 = bitcast <2 x i64> %96 to <4 x i32>
  %98 = shufflevector <4 x i32> %97, <4 x i32> poison, <4 x i32> <i32 1, i32 0, i32 3, i32 2>
  %99 = bitcast <4 x i32> %98 to <2 x i64>
  %100 = call <4 x float> @_mm_castsi128_ps(<2 x i64> noundef %99)
  store <4 x float> %100, ptr %19, align 16
  %101 = load ptr, ptr %7, align 8
  %102 = getelementptr inbounds float, ptr %101, i64 0
  %103 = load <4 x float>, ptr %16, align 16
  call void @_mm_storeu_ps(ptr noundef %102, <4 x float> noundef %103)
  %104 = load ptr, ptr %7, align 8
  %105 = getelementptr inbounds float, ptr %104, i64 4
  %106 = load <4 x float>, ptr %17, align 16
  call void @_mm_storeu_ps(ptr noundef %105, <4 x float> noundef %106)
  %107 = load ptr, ptr %7, align 8
  %108 = getelementptr inbounds float, ptr %107, i64 8
  %109 = load <4 x float>, ptr %18, align 16
  call void @_mm_storeu_ps(ptr noundef %108, <4 x float> noundef %109)
  %110 = load ptr, ptr %7, align 8
  %111 = getelementptr inbounds float, ptr %110, i64 12
  %112 = load <4 x float>, ptr %19, align 16
  call void @_mm_storeu_ps(ptr noundef %111, <4 x float> noundef %112)
  %113 = load ptr, ptr %7, align 8
  %114 = getelementptr inbounds float, ptr %113, i64 16
  store ptr %114, ptr %7, align 8
  %115 = load ptr, ptr %9, align 8
  %116 = getelementptr inbounds i8, ptr %115, i64 16
  store ptr %116, ptr %9, align 8
  %117 = load ptr, ptr %7, align 8
  %118 = load ptr, ptr %8, align 8
  %119 = icmp ule ptr %117, %118
  br i1 %119, label %120, label %121

120:                                              ; preds = %38
  store i32 3, ptr %21, align 4
  br label %130, !llvm.loop !126

121:                                              ; preds = %38
  %122 = load ptr, ptr %7, align 8
  %123 = load ptr, ptr %8, align 8
  %124 = getelementptr inbounds float, ptr %123, i64 16
  %125 = icmp eq ptr %122, %124
  br i1 %125, label %126, label %127

126:                                              ; preds = %121
  store i32 2, ptr %21, align 4
  br label %130

127:                                              ; preds = %121
  %128 = load ptr, ptr %8, align 8
  store ptr %128, ptr %7, align 8
  %129 = load ptr, ptr %10, align 8
  store ptr %129, ptr %9, align 8
  store i32 0, ptr %21, align 4
  br label %130

130:                                              ; preds = %127, %126, %120
  call void @llvm.lifetime.end.p0(i64 16, ptr %19) #19
  call void @llvm.lifetime.end.p0(i64 16, ptr %18) #19
  call void @llvm.lifetime.end.p0(i64 16, ptr %17) #19
  call void @llvm.lifetime.end.p0(i64 16, ptr %16) #19
  call void @llvm.lifetime.end.p0(i64 16, ptr %15) #19
  call void @llvm.lifetime.end.p0(i64 16, ptr %14) #19
  call void @llvm.lifetime.end.p0(i64 16, ptr %13) #19
  call void @llvm.lifetime.end.p0(i64 16, ptr %12) #19
  call void @llvm.lifetime.end.p0(i64 16, ptr %11) #19
  %131 = load i32, ptr %21, align 4
  switch i32 %131, label %206 [
    i32 0, label %132
    i32 3, label %38
    i32 2, label %133
  ]

132:                                              ; preds = %130
  br label %38, !llvm.loop !126

133:                                              ; preds = %130
  store i32 1, ptr %21, align 4
  br label %203

134:                                              ; preds = %3
  %135 = load ptr, ptr %7, align 8
  %136 = getelementptr inbounds float, ptr %135, i64 4
  store ptr %136, ptr %7, align 8
  br label %137

137:                                              ; preds = %141, %134
  %138 = load ptr, ptr %7, align 8
  %139 = load ptr, ptr %8, align 8
  %140 = icmp ule ptr %138, %139
  br i1 %140, label %141, label %175

141:                                              ; preds = %137
  %142 = load ptr, ptr %7, align 8
  call void asm sideeffect "", "r,~{dirflag},~{fpsr},~{flags}"(ptr %142) #19, !srcloc !127
  %143 = load ptr, ptr %9, align 8
  %144 = getelementptr inbounds i8, ptr %143, i64 1
  %145 = load i8, ptr %144, align 1
  %146 = uitofp i8 %145 to float
  %147 = fmul float %146, 0x3F70101020000000
  %148 = load ptr, ptr %7, align 8
  %149 = getelementptr inbounds float, ptr %148, i64 -4
  store float %147, ptr %149, align 4
  %150 = load ptr, ptr %9, align 8
  %151 = getelementptr inbounds i8, ptr %150, i64 0
  %152 = load i8, ptr %151, align 1
  %153 = uitofp i8 %152 to float
  %154 = fmul float %153, 0x3F70101020000000
  %155 = load ptr, ptr %7, align 8
  %156 = getelementptr inbounds float, ptr %155, i64 -3
  store float %154, ptr %156, align 4
  %157 = load ptr, ptr %9, align 8
  %158 = getelementptr inbounds i8, ptr %157, i64 3
  %159 = load i8, ptr %158, align 1
  %160 = uitofp i8 %159 to float
  %161 = fmul float %160, 0x3F70101020000000
  %162 = load ptr, ptr %7, align 8
  %163 = getelementptr inbounds float, ptr %162, i64 -2
  store float %161, ptr %163, align 4
  %164 = load ptr, ptr %9, align 8
  %165 = getelementptr inbounds i8, ptr %164, i64 2
  %166 = load i8, ptr %165, align 1
  %167 = uitofp i8 %166 to float
  %168 = fmul float %167, 0x3F70101020000000
  %169 = load ptr, ptr %7, align 8
  %170 = getelementptr inbounds float, ptr %169, i64 -1
  store float %168, ptr %170, align 4
  %171 = load ptr, ptr %7, align 8
  %172 = getelementptr inbounds float, ptr %171, i64 4
  store ptr %172, ptr %7, align 8
  %173 = load ptr, ptr %9, align 8
  %174 = getelementptr inbounds i8, ptr %173, i64 4
  store ptr %174, ptr %9, align 8
  br label %137, !llvm.loop !128

175:                                              ; preds = %137
  %176 = load ptr, ptr %7, align 8
  %177 = getelementptr inbounds float, ptr %176, i64 -4
  store ptr %177, ptr %7, align 8
  br label %178

178:                                              ; preds = %182, %175
  %179 = load ptr, ptr %7, align 8
  %180 = load ptr, ptr %8, align 8
  %181 = icmp ult ptr %179, %180
  br i1 %181, label %182, label %202

182:                                              ; preds = %178
  %183 = load ptr, ptr %7, align 8
  call void asm sideeffect "", "r,~{dirflag},~{fpsr},~{flags}"(ptr %183) #19, !srcloc !129
  %184 = load ptr, ptr %9, align 8
  %185 = getelementptr inbounds i8, ptr %184, i64 1
  %186 = load i8, ptr %185, align 1
  %187 = uitofp i8 %186 to float
  %188 = fmul float %187, 0x3F70101020000000
  %189 = load ptr, ptr %7, align 8
  %190 = getelementptr inbounds float, ptr %189, i64 0
  store float %188, ptr %190, align 4
  %191 = load ptr, ptr %9, align 8
  %192 = getelementptr inbounds i8, ptr %191, i64 0
  %193 = load i8, ptr %192, align 1
  %194 = uitofp i8 %193 to float
  %195 = fmul float %194, 0x3F70101020000000
  %196 = load ptr, ptr %7, align 8
  %197 = getelementptr inbounds float, ptr %196, i64 1
  store float %195, ptr %197, align 4
  %198 = load ptr, ptr %7, align 8
  %199 = getelementptr inbounds float, ptr %198, i64 2
  store ptr %199, ptr %7, align 8
  %200 = load ptr, ptr %9, align 8
  %201 = getelementptr inbounds i8, ptr %200, i64 2
  store ptr %201, ptr %9, align 8
  br label %178, !llvm.loop !130

202:                                              ; preds = %178
  store i32 0, ptr %21, align 4
  br label %203

203:                                              ; preds = %202, %133
  call void @llvm.lifetime.end.p0(i64 8, ptr %10) #19
  call void @llvm.lifetime.end.p0(i64 8, ptr %9) #19
  call void @llvm.lifetime.end.p0(i64 8, ptr %8) #19
  call void @llvm.lifetime.end.p0(i64 8, ptr %7) #19
  %204 = load i32, ptr %21, align 4
  switch i32 %204, label %206 [
    i32 0, label %205
    i32 1, label %205
  ]

205:                                              ; preds = %203, %203
  ret void

206:                                              ; preds = %203, %130
  unreachable
}