; Function Attrs: nounwind uwtable
define internal void @stbir__decode_uint8_linear_scaled_AR(ptr noundef %0, i32 noundef %1, ptr noundef readonly captures(none) %2) #22 {
  %4 = sext i32 %1 to i64
  %.idx = shl nsw i64 %4, 2
  %5 = getelementptr inbounds i8, ptr %0, i64 %.idx
  %6 = getelementptr inbounds i8, ptr %2, i64 %4
  %7 = getelementptr inbounds i8, ptr %6, i64 -16
  %8 = icmp sgt i32 %1, 15
  br i1 %8, label %9, label %.preheader87

.preheader87:                                     ; preds = %3
  %.not89 = icmp slt i32 %1, 4
  br i1 %.not89, label %.preheader, label %.lr.ph.preheader

.lr.ph.preheader:                                 ; preds = %.preheader87
  %.288 = getelementptr inbounds nuw i8, ptr %0, i64 16
  br label %.lr.ph

9:                                                ; preds = %3
  %10 = getelementptr inbounds i8, ptr %5, i64 -64
  br label %11

11:                                               ; preds = %11, %9
  %.075 = phi ptr [ %2, %9 ], [ %.176, %11 ]
  %.074 = phi ptr [ %0, %9 ], [ %.1, %11 ]
  tail call void asm sideeffect "", "r,~{dirflag},~{fpsr},~{flags}"(ptr %.074) #54, !srcloc !134
  %12 = load <16 x i8>, ptr %.075, align 1
  %13 = shufflevector <16 x i8> %12, <16 x i8> <i8 0, i8 0, i8 0, i8 0, i8 0, i8 0, i8 0, i8 0, i8 poison, i8 poison, i8 poison, i8 poison, i8 poison, i8 poison, i8 poison, i8 poison>, <16 x i32> <i32 0, i32 16, i32 1, i32 17, i32 2, i32 18, i32 3, i32 19, i32 4, i32 20, i32 5, i32 21, i32 6, i32 22, i32 7, i32 23>
  %14 = shufflevector <16 x i8> %12, <16 x i8> <i8 poison, i8 poison, i8 poison, i8 poison, i8 poison, i8 poison, i8 poison, i8 poison, i8 0, i8 0, i8 0, i8 0, i8 0, i8 0, i8 0, i8 0>, <16 x i32> <i32 8, i32 24, i32 9, i32 25, i32 10, i32 26, i32 11, i32 27, i32 12, i32 28, i32 13, i32 29, i32 14, i32 30, i32 15, i32 31>
  %15 = bitcast <16 x i8> %13 to <8 x i16>
  %16 = shufflevector <8 x i16> %15, <8 x i16> <i16 0, i16 0, i16 0, i16 0, i16 poison, i16 poison, i16 poison, i16 poison>, <8 x i32> <i32 0, i32 8, i32 1, i32 9, i32 2, i32 10, i32 3, i32 11>
  %17 = shufflevector <8 x i16> %15, <8 x i16> <i16 poison, i16 poison, i16 poison, i16 poison, i16 0, i16 0, i16 0, i16 0>, <8 x i32> <i32 4, i32 12, i32 5, i32 13, i32 6, i32 14, i32 7, i32 15>
  %18 = bitcast <16 x i8> %14 to <8 x i16>
  %19 = shufflevector <8 x i16> %18, <8 x i16> <i16 0, i16 0, i16 0, i16 0, i16 poison, i16 poison, i16 poison, i16 poison>, <8 x i32> <i32 0, i32 8, i32 1, i32 9, i32 2, i32 10, i32 3, i32 11>
  %20 = shufflevector <8 x i16> %18, <8 x i16> <i16 poison, i16 poison, i16 poison, i16 poison, i16 0, i16 0, i16 0, i16 0>, <8 x i32> <i32 4, i32 12, i32 5, i32 13, i32 6, i32 14, i32 7, i32 15>
  %21 = bitcast <8 x i16> %16 to <4 x i32>
  %22 = uitofp nneg <4 x i32> %21 to <4 x float>
  %23 = bitcast <8 x i16> %17 to <4 x i32>
  %24 = uitofp nneg <4 x i32> %23 to <4 x float>
  %25 = bitcast <8 x i16> %19 to <4 x i32>
  %26 = uitofp nneg <4 x i32> %25 to <4 x float>
  %27 = bitcast <8 x i16> %20 to <4 x i32>
  %28 = uitofp nneg <4 x i32> %27 to <4 x float>
  %29 = fmul <4 x float> %22, splat (float 0x3F70101020000000)
  %30 = fmul <4 x float> %24, splat (float 0x3F70101020000000)
  %31 = fmul <4 x float> %26, splat (float 0x3F70101020000000)
  %32 = fmul <4 x float> %28, splat (float 0x3F70101020000000)
  %33 = shufflevector <4 x float> %29, <4 x float> poison, <4 x i32> <i32 1, i32 0, i32 3, i32 2>
  %34 = shufflevector <4 x float> %30, <4 x float> poison, <4 x i32> <i32 1, i32 0, i32 3, i32 2>
  %35 = shufflevector <4 x float> %31, <4 x float> poison, <4 x i32> <i32 1, i32 0, i32 3, i32 2>
  %36 = shufflevector <4 x float> %32, <4 x float> poison, <4 x i32> <i32 1, i32 0, i32 3, i32 2>
  store <4 x float> %33, ptr %.074, align 1
  %37 = getelementptr inbounds nuw i8, ptr %.074, i64 16
  store <4 x float> %34, ptr %37, align 1
  %38 = getelementptr inbounds nuw i8, ptr %.074, i64 32
  store <4 x float> %35, ptr %38, align 1
  %39 = getelementptr inbounds nuw i8, ptr %.074, i64 48
  store <4 x float> %36, ptr %39, align 1
  %40 = getelementptr inbounds nuw i8, ptr %.074, i64 64
  %41 = getelementptr inbounds nuw i8, ptr %.075, i64 16
  %.not83 = icmp ugt ptr %40, %10
  %42 = icmp eq ptr %40, %5
  %. = select i1 %42, ptr %41, ptr %7
  %.84 = select i1 %42, ptr %40, ptr %10
  %.176 = select i1 %.not83, ptr %., ptr %41
  %.1 = select i1 %.not83, ptr %.84, ptr %40
  br i1 %42, label %.loopexit, label %11

.preheader:                                       ; preds = %.lr.ph, %.preheader87
  %.277.lcssa = phi ptr [ %2, %.preheader87 ], [ %62, %.lr.ph ]
  %.pn.lcssa = phi ptr [ %0, %.preheader87 ], [ %.292, %.lr.ph ]
  %43 = icmp ult ptr %.pn.lcssa, %5
  br i1 %43, label %.lr.ph96, label %.loopexit

.lr.ph:                                           ; preds = %.lr.ph.preheader, %.lr.ph
  %.292 = phi ptr [ %.2, %.lr.ph ], [ %.288, %.lr.ph.preheader ]
  %.pn91 = phi ptr [ %.292, %.lr.ph ], [ %0, %.lr.ph.preheader ]
  %.27790 = phi ptr [ %62, %.lr.ph ], [ %2, %.lr.ph.preheader ]
  tail call void asm sideeffect "", "r,~{dirflag},~{fpsr},~{flags}"(ptr nonnull %.292) #54, !srcloc !135
  %44 = getelementptr inbounds nuw i8, ptr %.27790, i64 1
  %45 = load i8, ptr %44, align 1
  %46 = uitofp i8 %45 to float
  %47 = fmul float %46, 0x3F70101020000000
  store float %47, ptr %.pn91, align 4
  %48 = load i8, ptr %.27790, align 1
  %49 = uitofp i8 %48 to float
  %50 = fmul float %49, 0x3F70101020000000
  %51 = getelementptr inbounds nuw i8, ptr %.pn91, i64 4
  store float %50, ptr %51, align 4
  %52 = getelementptr inbounds nuw i8, ptr %.27790, i64 3
  %53 = load i8, ptr %52, align 1
  %54 = uitofp i8 %53 to float
  %55 = fmul float %54, 0x3F70101020000000
  %56 = getelementptr inbounds nuw i8, ptr %.pn91, i64 8
  store float %55, ptr %56, align 4
  %57 = getelementptr inbounds nuw i8, ptr %.27790, i64 2
  %58 = load i8, ptr %57, align 1
  %59 = uitofp i8 %58 to float
  %60 = fmul float %59, 0x3F70101020000000
  %61 = getelementptr inbounds nuw i8, ptr %.pn91, i64 12
  store float %60, ptr %61, align 4
  %62 = getelementptr inbounds nuw i8, ptr %.27790, i64 4
  %.2 = getelementptr inbounds nuw i8, ptr %.292, i64 16
  %.not = icmp ugt ptr %.2, %5
  br i1 %.not, label %.preheader, label %.lr.ph, !llvm.loop !136

.lr.ph96:                                         ; preds = %.preheader, %.lr.ph96
  %.395 = phi ptr [ %71, %.lr.ph96 ], [ %.pn.lcssa, %.preheader ]
  %.37894 = phi ptr [ %72, %.lr.ph96 ], [ %.277.lcssa, %.preheader ]
  tail call void asm sideeffect "", "r,~{dirflag},~{fpsr},~{flags}"(ptr nonnull %.395) #54, !srcloc !137
  %63 = getelementptr inbounds nuw i8, ptr %.37894, i64 1
  %64 = load i8, ptr %63, align 1
  %65 = uitofp i8 %64 to float
  %66 = fmul float %65, 0x3F70101020000000
  store float %66, ptr %.395, align 4
  %67 = load i8, ptr %.37894, align 1
  %68 = uitofp i8 %67 to float
  %69 = fmul float %68, 0x3F70101020000000
  %70 = getelementptr inbounds nuw i8, ptr %.395, i64 4
  store float %69, ptr %70, align 4
  %71 = getelementptr inbounds nuw i8, ptr %.395, i64 8
  %72 = getelementptr inbounds nuw i8, ptr %.37894, i64 2
  %73 = icmp ult ptr %71, %5
  br i1 %73, label %.lr.ph96, label %.loopexit, !llvm.loop !138

.loopexit:                                        ; preds = %.lr.ph96, %11, %.preheader
  ret void
}